target datalayout = "e-m:e-p270:32:32-p271:32:32-p272:64:64-i64:64-i128:128-f80:128-n8:16:32:64-S128"
target triple = "x86_64-pc-linux-gnu"

%"class.cv::Mat" = type { i32, i32, i32, i32, ptr, ptr, ptr, ptr, ptr, ptr, %"struct.cv::MatSize", %"struct.cv::MatStep" }
%"struct.cv::MatSize" = type { ptr }
%"struct.cv::MatStep" = type { ptr, [2 x i64] }

; Function Attrs: inlinehint mustprogress nounwind uwtable
define linkonce_odr hidden noundef ptr @_ZN2cv3Mat3ptrIhEEPT_i(ptr noundef nonnull align 8 dereferenceable(96) %0, i32 noundef %1) #7 comdat align 2 {
  %3 = alloca ptr, align 8
  %4 = alloca i32, align 4
  store ptr %0, ptr %3, align 8, !tbaa !56
  store i32 %1, ptr %4, align 4, !tbaa !21
  %5 = load ptr, ptr %3, align 8
  %6 = getelementptr inbounds nuw %"class.cv::Mat", ptr %5, i32 0, i32 4
  %7 = load ptr, ptr %6, align 8, !tbaa !86
  %8 = getelementptr inbounds nuw %"class.cv::Mat", ptr %5, i32 0, i32 11
  %9 = getelementptr inbounds nuw %"struct.cv::MatStep", ptr %8, i32 0, i32 0
  %10 = load ptr, ptr %9, align 8, !tbaa !87
  %11 = getelementptr inbounds i64, ptr %10, i64 0
  %12 = load i64, ptr %11, align 8, !tbaa !88
  %13 = load i32, ptr %4, align 4, !tbaa !21
  %14 = sext i32 %13 to i64
  %15 = mul i64 %12, %14
  %16 = getelementptr inbounds nuw i8, ptr %7, i64 %15
  ret ptr %16
}

; Function Attrs: mustprogress uwtable
define hidden noundef i32 @_ZN5zxing30AdaptiveThresholdMeanBinarizer16TransMatToBufferEN2cv3MatEPhRiS4_(ptr noundef nonnull align 8 dereferenceable(121) %0, ptr noundef %1, ptr noundef %2, ptr noundef nonnull align 4 dereferenceable(4) %3, ptr noundef nonnull align 4 dereferenceable(4) %4) #0 align 2 {
  %6 = alloca ptr, align 8
  %7 = alloca ptr, align 8
  %8 = alloca ptr, align 8
  %9 = alloca ptr, align 8
  %10 = alloca ptr, align 8
  %11 = alloca i32, align 4
  %12 = alloca i32, align 4
  %13 = alloca ptr, align 8
  %14 = alloca i32, align 4
  %15 = alloca i32, align 4
  %16 = alloca i32, align 4
  store ptr %0, ptr %6, align 8, !tbaa !3
  store ptr %1, ptr %7, align 8, !tbaa !56
  store ptr %2, ptr %8, align 8, !tbaa !38
  store ptr %3, ptr %9, align 8, !tbaa !80
  store ptr %4, ptr %10, align 8, !tbaa !80
  %17 = getelementptr inbounds nuw %"class.cv::Mat", ptr %1, i32 0, i32 3
  %18 = load i32, ptr %17, align 4, !tbaa !81
  %19 = load ptr, ptr %9, align 8, !tbaa !80
  store i32 %18, ptr %19, align 4, !tbaa !21
  %20 = getelementptr inbounds nuw %"class.cv::Mat", ptr %1, i32 0, i32 2
  %21 = load i32, ptr %20, align 8, !tbaa !82
  %22 = load ptr, ptr %10, align 8, !tbaa !80
  store i32 %21, ptr %22, align 4, !tbaa !21
  call void @llvm.lifetime.start.p0(i64 4, ptr %11) #10
  store i32 0, ptr %11, align 4, !tbaa !21
  br label %23

23:                                               ; preds = %73, %5
  %24 = load i32, ptr %11, align 4, !tbaa !21
  %25 = load ptr, ptr %10, align 8, !tbaa !80
  %26 = load i32, ptr %25, align 4, !tbaa !21
  %27 = icmp slt i32 %24, %26
  br i1 %27, label %29, label %28

28:                                               ; preds = %23
  store i32 2, ptr %12, align 4
  call void @llvm.lifetime.end.p0(i64 4, ptr %11) #10
  br label %76

29:                                               ; preds = %23
  call void @llvm.lifetime.start.p0(i64 8, ptr %13) #10
  %30 = load ptr, ptr %8, align 8, !tbaa !38
  %31 = load i32, ptr %11, align 4, !tbaa !21
  %32 = load ptr, ptr %9, align 8, !tbaa !80
  %33 = load i32, ptr %32, align 4, !tbaa !21
  %34 = mul nsw i32 %31, %33
  %35 = sext i32 %34 to i64
  %36 = getelementptr inbounds i8, ptr %30, i64 %35
  store ptr %36, ptr %13, align 8, !tbaa !38
  call void @llvm.lifetime.start.p0(i64 4, ptr %14) #10
  store i32 0, ptr %14, align 4, !tbaa !21
  br label %37

37:                                               ; preds = %69, %29
  %38 = load i32, ptr %14, align 4, !tbaa !21
  %39 = load ptr, ptr %9, align 8, !tbaa !80
  %40 = load i32, ptr %39, align 4, !tbaa !21
  %41 = icmp slt i32 %38, %40
  br i1 %41, label %43, label %42

42:                                               ; preds = %37
  store i32 5, ptr %12, align 4
  call void @llvm.lifetime.end.p0(i64 4, ptr %14) #10
  br label %72

43:                                               ; preds = %37
  call void @llvm.lifetime.start.p0(i64 4, ptr %15) #10
  %44 = load ptr, ptr %10, align 8, !tbaa !80
  %45 = load i32, ptr %44, align 4, !tbaa !21
  %46 = load i32, ptr %11, align 4, !tbaa !21
  %47 = sub nsw i32 %45, %46
  %48 = sub nsw i32 %47, 1
  store i32 %48, ptr %15, align 4, !tbaa !21
  call void @llvm.lifetime.start.p0(i64 4, ptr %16) #10
  %49 = load i32, ptr %15, align 4, !tbaa !21
  %50 = call noundef ptr @_ZN2cv3Mat3ptrIhEEPT_i(ptr noundef nonnull align 8 dereferenceable(96) %1, i32 noundef %49)
  %51 = load i32, ptr %14, align 4, !tbaa !21
  %52 = sext i32 %51 to i64
  %53 = getelementptr inbounds i8, ptr %50, i64 %52
  %54 = load i8, ptr %53, align 1, !tbaa !83
  %55 = zext i8 %54 to i32
  store i32 %55, ptr %16, align 4, !tbaa !21
  %56 = load i32, ptr %16, align 4, !tbaa !21
  %57 = icmp sgt i32 %56, 120
  br i1 %57, label %58, label %63

58:                                               ; preds = %43
  %59 = load ptr, ptr %13, align 8, !tbaa !38
  %60 = load i32, ptr %14, align 4, !tbaa !21
  %61 = sext i32 %60 to i64
  %62 = getelementptr inbounds i8, ptr %59, i64 %61
  store i8 0, ptr %62, align 1, !tbaa !83
  br label %68

63:                                               ; preds = %43
  %64 = load ptr, ptr %13, align 8, !tbaa !38
  %65 = load i32, ptr %14, align 4, !tbaa !21
  %66 = sext i32 %65 to i64
  %67 = getelementptr inbounds i8, ptr %64, i64 %66
  store i8 1, ptr %67, align 1, !tbaa !83
  br label %68

68:                                               ; preds = %63, %58
  call void @llvm.lifetime.end.p0(i64 4, ptr %16) #10
  call void @llvm.lifetime.end.p0(i64 4, ptr %15) #10
  br label %69

69:                                               ; preds = %68
  %70 = load i32, ptr %14, align 4, !tbaa !21
  %71 = add nsw i32 %70, 1
  store i32 %71, ptr %14, align 4, !tbaa !21
  br label %37, !llvm.loop !84

72:                                               ; preds = %42
  call void @llvm.lifetime.end.p0(i64 8, ptr %13) #10
  br label %73

73:                                               ; preds = %72
  %74 = load i32, ptr %11, align 4, !tbaa !21
  %75 = add nsw i32 %74, 1
  store i32 %75, ptr %11, align 4, !tbaa !21
  br label %23, !llvm.loop !85

76:                                               ; preds = %28
  ret i32 0
}