; Function Attrs: mustprogress nofree norecurse nosync nounwind memory(read, argmem: readwrite, inaccessiblemem: none) uwtable
define hidden noundef i32 @_ZN5zxing30AdaptiveThresholdMeanBinarizer16TransMatToBufferEN2cv3MatEPhRiS4_(ptr noundef nonnull readnone align 8 captures(none) dereferenceable(121) %0, ptr noundef readonly captures(none) %1, ptr noundef writeonly captures(none) %2, ptr noundef nonnull align 4 captures(none) dereferenceable(4) initializes((0, 4)) %3, ptr noundef nonnull align 4 captures(none) dereferenceable(4) initializes((0, 4)) %4) local_unnamed_addr #9 align 2 {
  %6 = getelementptr inbounds nuw i8, ptr %1, i64 12
  %7 = load i32, ptr %6, align 4, !tbaa !64
  store i32 %7, ptr %3, align 4, !tbaa !65
  %8 = getelementptr inbounds nuw i8, ptr %1, i64 8
  %9 = load i32, ptr %8, align 8, !tbaa !66
  store i32 %9, ptr %4, align 4, !tbaa !65
  %10 = icmp sgt i32 %9, 0
  br i1 %10, label %.lr.ph23, label %._crit_edge24

.lr.ph23:                                         ; preds = %5
  %11 = getelementptr inbounds nuw i8, ptr %1, i64 16
  %12 = getelementptr inbounds nuw i8, ptr %1, i64 72
  %13 = load i32, ptr %3, align 4, !tbaa !65
  %14 = icmp sgt i32 %13, 0
  br i1 %14, label %.lr.ph23.split, label %._crit_edge24

._crit_edge24:                                    ; preds = %._crit_edge, %.lr.ph23, %5
  ret i32 0

.lr.ph23.split:                                   ; preds = %.lr.ph23, %._crit_edge
  %15 = phi i32 [ %22, %._crit_edge ], [ %9, %.lr.ph23 ]
  %16 = phi i32 [ %23, %._crit_edge ], [ %13, %.lr.ph23 ]
  %.021 = phi i32 [ %24, %._crit_edge ], [ 0, %.lr.ph23 ]
  %17 = mul nsw i32 %16, %.021
  %18 = sext i32 %17 to i64
  %19 = getelementptr inbounds i8, ptr %2, i64 %18
  %20 = icmp sgt i32 %16, 0
  br i1 %20, label %.lr.ph, label %._crit_edge

.lr.ph:                                           ; preds = %.lr.ph23.split
  %21 = xor i32 %.021, -1
  br label %26

._crit_edge.loopexit:                             ; preds = %26
  %.pre = load i32, ptr %4, align 4, !tbaa !65
  br label %._crit_edge

._crit_edge:                                      ; preds = %._crit_edge.loopexit, %.lr.ph23.split
  %22 = phi i32 [ %.pre, %._crit_edge.loopexit ], [ %15, %.lr.ph23.split ]
  %23 = phi i32 [ %39, %._crit_edge.loopexit ], [ %16, %.lr.ph23.split ]
  %24 = add nuw nsw i32 %.021, 1
  %25 = icmp slt i32 %24, %22
  br i1 %25, label %.lr.ph23.split, label %._crit_edge24, !llvm.loop !67

26:                                               ; preds = %.lr.ph, %26
  %indvars.iv = phi i64 [ 0, %.lr.ph ], [ %indvars.iv.next, %26 ]
  %27 = load i32, ptr %4, align 4, !tbaa !65
  %28 = add i32 %27, %21
  %29 = load ptr, ptr %11, align 8, !tbaa !52
  %30 = load ptr, ptr %12, align 8, !tbaa !53
  %31 = load i64, ptr %30, align 8, !tbaa !54
  %32 = sext i32 %28 to i64
  %33 = mul i64 %31, %32
  %34 = getelementptr inbounds nuw i8, ptr %29, i64 %33
  %35 = getelementptr inbounds nuw i8, ptr %34, i64 %indvars.iv
  %36 = load i8, ptr %35, align 1, !tbaa !69
  %37 = icmp ult i8 %36, 121
  %spec.select = zext i1 %37 to i8
  %38 = getelementptr inbounds nuw i8, ptr %19, i64 %indvars.iv
  store i8 %spec.select, ptr %38, align 1, !tbaa !69
  %indvars.iv.next = add nuw nsw i64 %indvars.iv, 1
  %39 = load i32, ptr %3, align 4, !tbaa !65
  %40 = sext i32 %39 to i64
  %41 = icmp slt i64 %indvars.iv.next, %40
  br i1 %41, label %26, label %._crit_edge.loopexit, !llvm.loop !70
}